target datalayout = "e-m:e-p270:32:32-p271:32:32-p272:64:64-i64:64-i128:128-f80:128-n8:16:32:64-S128"
target triple = "x86_64-pc-linux-gnu"

%struct.zbee_zcl_packet = type { i8, i8, i8, i8, i16, i8, i8 }
%struct._packet_info = type { ptr, ptr, i32, i32, %struct.nstime_t, %struct.nstime_t, %struct.nstime_t, i8, ptr, ptr, ptr, ptr, %struct._address, %struct._address, %struct._address, %struct._address, %struct._address, %struct._address, i32, ptr, i8, [3 x i8], %struct.anon, i32, i32, i32, i32, ptr, i8, ptr, ptr, i16, i16, i32, i32, i16, i32, i32, ptr, ptr, ptr, i8, i8, i16, i16, i16, i32, i16, i16, ptr, ptr, ptr, ptr, ptr, i32, i32 }
%struct.nstime_t = type { i64, i32 }
%struct._address = type { i32, i32, ptr, ptr }
%struct.anon = type { i8, [3 x i8] }

@hf_zbee_zcl_basic_srv_rx_cmd_id = internal global i32 0, align 4
@zbee_zcl_basic_srv_rx_cmd_names = internal constant [2 x { i32, [4 x i8], ptr }] [{ i32, [4 x i8], ptr } { i32 0, [4 x i8] zeroinitializer, ptr @.str.1187 }, { i32, [4 x i8], ptr } zeroinitializer], align 16
@.str.1189 = private unnamed_addr constant [12 x i8] c"%s, Seq: %u\00", align 1
@.str.1190 = private unnamed_addr constant [16 x i8] c"Unknown Command\00", align 1

; Function Attrs: null_pointer_is_valid sspstrong uwtable
define internal i32 @dissect_zbee_zcl_basic(ptr noundef %0, ptr noundef %1, ptr noundef %2, ptr noundef %3) #0 {
  %5 = alloca i32, align 4
  %6 = alloca ptr, align 8
  %7 = alloca ptr, align 8
  %8 = alloca ptr, align 8
  %9 = alloca ptr, align 8
  %10 = alloca ptr, align 8
  %11 = alloca i32, align 4
  %12 = alloca i8, align 1
  %13 = alloca i32, align 4
  store ptr %0, ptr %6, align 8
  store ptr %1, ptr %7, align 8
  store ptr %2, ptr %8, align 8
  store ptr %3, ptr %9, align 8
  call void @llvm.lifetime.start.p0(i64 8, ptr %10) #7
  call void @llvm.lifetime.start.p0(i64 4, ptr %11) #7
  store i32 0, ptr %11, align 4
  call void @llvm.lifetime.start.p0(i64 1, ptr %12) #7
  %14 = load ptr, ptr %9, align 8
  %15 = icmp eq ptr %14, null
  br i1 %15, label %16, label %17

16:                                               ; preds = %4
  store i32 0, ptr %5, align 4
  store i32 1, ptr %13, align 4
  br label %55

17:                                               ; preds = %4
  %18 = load ptr, ptr %9, align 8
  store ptr %18, ptr %10, align 8
  %19 = load ptr, ptr %10, align 8
  %20 = getelementptr inbounds nuw %struct.zbee_zcl_packet, ptr %19, i32 0, i32 6
  %21 = load i8, ptr %20, align 1
  store i8 %21, ptr %12, align 1
  %22 = load ptr, ptr %10, align 8
  %23 = getelementptr inbounds nuw %struct.zbee_zcl_packet, ptr %22, i32 0, i32 1
  %24 = load i8, ptr %23, align 1, !range !6, !noundef !7
  %25 = trunc i8 %24 to i1
  %26 = zext i1 %25 to i32
  %27 = icmp eq i32 %26, 0
  br i1 %27, label %28, label %52

28:                                               ; preds = %17
  %29 = load ptr, ptr %7, align 8
  %30 = getelementptr inbounds nuw %struct._packet_info, ptr %29, i32 0, i32 1
  %31 = load ptr, ptr %30, align 8
  %32 = load i8, ptr %12, align 1
  %33 = zext i8 %32 to i32
  %34 = call ptr @val_to_str_const(i32 noundef %33, ptr noundef @zbee_zcl_basic_srv_rx_cmd_names, ptr noundef @.str.1190)
  %35 = load ptr, ptr %10, align 8
  %36 = getelementptr inbounds nuw %struct.zbee_zcl_packet, ptr %35, i32 0, i32 5
  %37 = load i8, ptr %36, align 2
  %38 = zext i8 %37 to i32
  call void (ptr, i32, ptr, ...) @col_append_fstr(ptr noundef %31, i32 noundef 25, ptr noundef @.str.1189, ptr noundef %34, i32 noundef %38)
  %39 = load ptr, ptr %8, align 8
  %40 = icmp ne ptr %39, null
  br i1 %40, label %41, label %47

41:                                               ; preds = %28
  %42 = load ptr, ptr %8, align 8
  %43 = load i32, ptr @hf_zbee_zcl_basic_srv_rx_cmd_id, align 4
  %44 = load ptr, ptr %6, align 8
  %45 = load i32, ptr %11, align 4
  %46 = call ptr @proto_tree_add_item(ptr noundef %42, i32 noundef %43, ptr noundef %44, i32 noundef %45, i32 noundef 1, i32 noundef -2147483648)
  br label %47

47:                                               ; preds = %41, %28
  %48 = load i8, ptr %12, align 1
  %49 = zext i8 %48 to i32
  switch i32 %49, label %50 [
    i32 0, label %51
  ]

50:                                               ; preds = %47
  br label %51

51:                                               ; preds = %50, %47
  br label %52

52:                                               ; preds = %51, %17
  %53 = load ptr, ptr %6, align 8
  %54 = call i32 @tvb_captured_length(ptr noundef %53)
  store i32 %54, ptr %5, align 4
  store i32 1, ptr %13, align 4
  br label %55

55:                                               ; preds = %52, %16
  call void @llvm.lifetime.end.p0(i64 1, ptr %12) #7
  call void @llvm.lifetime.end.p0(i64 4, ptr %11) #7
  call void @llvm.lifetime.end.p0(i64 8, ptr %10) #7
  %56 = load i32, ptr %5, align 4
  ret i32 %56
}