; Function Attrs: null_pointer_is_valid sspstrong uwtable
define internal i32 @dissect_zbee_zcl_basic(ptr noundef %0, ptr noundef readonly captures(none) %1, ptr noundef %2, ptr noundef readonly captures(address_is_null) %3) #0 {
  %5 = icmp eq ptr %3, null
  br i1 %5, label %25, label %6

6:                                                ; preds = %4
  %7 = getelementptr inbounds nuw i8, ptr %3, i64 1
  %8 = load i8, ptr %7, align 1, !range !6, !noundef !7
  %9 = icmp eq i8 %8, 0
  br i1 %9, label %10, label %23

10:                                               ; preds = %6
  %11 = getelementptr inbounds nuw i8, ptr %3, i64 7
  %12 = load i8, ptr %11, align 1
  %13 = getelementptr inbounds nuw i8, ptr %1, i64 8
  %14 = load ptr, ptr %13, align 8
  %15 = zext i8 %12 to i32
  %16 = tail call ptr @val_to_str_const(i32 noundef %15, ptr noundef nonnull @zbee_zcl_basic_srv_rx_cmd_names, ptr noundef nonnull @.str.1190)
  %17 = getelementptr inbounds nuw i8, ptr %3, i64 6
  %18 = load i8, ptr %17, align 2
  %19 = zext i8 %18 to i32
  tail call void (ptr, i32, ptr, ...) @col_append_fstr(ptr noundef %14, i32 noundef 25, ptr noundef nonnull @.str.1189, ptr noundef %16, i32 noundef %19)
  %.not = icmp eq ptr %2, null
  br i1 %.not, label %23, label %20

20:                                               ; preds = %10
  %21 = load i32, ptr @hf_zbee_zcl_basic_srv_rx_cmd_id, align 4
  %22 = tail call ptr @proto_tree_add_item(ptr noundef nonnull %2, i32 noundef %21, ptr noundef %0, i32 noundef 0, i32 noundef 1, i32 noundef -2147483648)
  br label %23

23:                                               ; preds = %10, %20, %6
  %24 = tail call i32 @tvb_captured_length(ptr noundef %0)
  br label %25

25:                                               ; preds = %4, %23
  %.0 = phi i32 [ %24, %23 ], [ 0, %4 ]
  ret i32 %.0
}